Microchip MPLAB XC8 Compiler V2.41

Linker command line:

-W-3 \
  --edf=C:\Program Files\Microchip\xc8\v2.41\pic\dat\20230208172133_en.msgs \
  -cn -h+dist/default/production\BMS_Slave.X.production.sym \
  --cmf=dist/default/production\BMS_Slave.X.production.cmf -z -Q16F1508 \
  -oC:\Users\Henry\AppData\Local\Temp\xcAs7a0.\driver_tmp_3.o \
  --defsym=__MPLAB_BUILD=1 --fixupoverflow=error \
  -Mdist/default/production/BMS_Slave.X.production.map \
  --md=C:\Users\Henry\AppData\Local\Temp\xcAs7a0.\driver_tmp_0.dat -E1 \
  -ver=XC8 Compiler --acfsm=1493 -ACODE=00h-07FFhx2 -ASTRCODE=00h-0FFFh \
  -ASTRING=00h-0FFhx16 -ACONST=00h-0FFhx16 -AENTRY=00h-0FFhx16 \
  -ACOMMON=070h-07Fh -ABANK0=020h-06Fh -ABANK1=0A0h-0EFh \
  -ABANK2=0120h-016Fh -ABIGRAM=02000h-020EFh \
  -ARAM=020h-06Fh,0A0h-0EFh,0120h-016Fh \
  -AABS1=020h-07Fh,0A0h-0EFh,0120h-016Fh -ASFR0=00h-01Fh -ASFR1=080h-09Fh \
  -ASFR2=0100h-011Fh -ASFR3=0180h-01EFh -ASFR4=0200h-026Fh \
  -ASFR5=0280h-02EFh -ASFR6=0300h-036Fh -ASFR7=0380h-03EFh \
  -ASFR8=0400h-046Fh -ASFR9=0480h-04EFh -ASFR10=0500h-056Fh \
  -ASFR11=0580h-05EFh -ASFR12=0600h-066Fh -ASFR13=0680h-06EFh \
  -ASFR14=0700h-076Fh -ASFR15=0780h-07EFh -ASFR16=0800h-086Fh \
  -ASFR17=0880h-08EFh -ASFR18=0900h-096Fh -ASFR19=0980h-09EFh \
  -ASFR20=0A00h-0A6Fh -ASFR21=0A80h-0AEFh -ASFR22=0B00h-0B6Fh \
  -ASFR23=0B80h-0BEFh -ASFR24=0C00h-0C6Fh -ASFR25=0C80h-0CEFh \
  -ASFR26=0D00h-0D6Fh -ASFR27=0D80h-0DEFh -ASFR28=0E00h-0E6Fh \
  -ASFR29=0E80h-0EEFh -ASFR30=0F00h-0F6Fh -ASFR31=0F80h-0FEFh \
  -ACONFIG=08007h-08008h -DCONFIG=2 -AIDLOC=08000h-08003h -DIDLOC=2 \
  -DCODE=2 -DSTRCODE=2 -DSTRING=2 -DCONST=2 -DENTRY=2 \
  -preset_vec=00h,intentry=04h,init,end_init -ppowerup=CODE -pcinit=CODE \
  -pfunctab=ENTRY -k \
  C:\Users\Henry\AppData\Local\Temp\xcAs7a0.\driver_tmp_12.o \
  dist/default/production\BMS_Slave.X.production.o 

Object code version is 3.11

Machine type is 16F1508



                Name                               Link     Load   Length Selector   Space Scale
C:\Users\Henry\AppData\Local\Temp\xcAs7a0.\driver_tmp_12.o
                end_init                             27       27        2        8       0
                reset_vec                             0        0        2        0       0
                config                             8007     8007        2        0       4
                idloc                              8000     8000        4        0       5
dist/default/production\BMS_Slave.X.production.o
                cinit                                29       29       20        8       0
                intentry                              4        4       23        8       0
                config                             8007     8007        2        0       4
                idloc                              8000     8000        4        0       5
                text35                              32C      32C        3        8       0
                text34                              2F8      2F8        6        8       0
                text33                              28E      28E        D        8       0
                text32                              329      329        3        8       0
                text31                              2B5      2B5        7        8       0
                text30                              312      312        5        8       0
                text29                              31F      31F        4        8       0
                text28                              2AE      2AE        7        8       0
                text27                              30D      30D        5        8       0
                text26                              18D      18D       52        8       0
                text25                              326      326        3        8       0
                text24                              308      308        5        8       0
                text23                              2F2      2F2        6        8       0
                text22                              236      236       1D        8       0
                text21                              120      120       6D        8       0
                text19                              218      218       1E        8       0
                text18                              323      323        3        8       0
                text17                              280      280        E        8       0
                text16                              2EC      2EC        6        8       0
                text15                              2E6      2E6        6        8       0
                text14                              2E0      2E0        6        8       0
                text13                              2DA      2DA        6        8       0
                text12                              303      303        5        8       0
                text11                              2FE      2FE        5        8       0
                text10                              2D4      2D4        6        8       0
                text9                               2CE      2CE        6        8       0
                text8                               1DF      1DF       39        8       0
                text7                               2A5      2A5        9        8       0
                text6                               31B      31B        4        8       0
                text5                               29B      29B        A        8       0
                text4                               2C8      2C8        6        8       0
                text3                               253      253       1A        8       0
                text2                               317      317        4        8       0
                text1                               26D      26D       13        8       0
                maintext                             49       49       D7        8       0
                cstackBANK0                          46       46        4       20       1
                cstackCOMMON                         70       70        6       70       1
                clrtext                             2C2      2C2        6        8       0
                dataBANK0                            40       40        6       20       1
                bssBANK0                             20       20       20       20       1
                bssCOMMON                            76       76        4       70       1
                idataBANK0                          2BC      2BC        6        8       0

TOTAL           Name                               Link     Load   Length     Space
        CLASS   CODE           
                end_init                             27       27        2         0
                cinit                                29       29       20         0
                intentry                              4        4       23         0
                reset_vec                             0        0        2         0
                text35                              32C      32C        3         0
                text34                              2F8      2F8        6         0
                text33                              28E      28E        D         0
                text32                              329      329        3         0
                text31                              2B5      2B5        7         0
                text30                              312      312        5         0
                text29                              31F      31F        4         0
                text28                              2AE      2AE        7         0
                text27                              30D      30D        5         0
                text26                              18D      18D       52         0
                text25                              326      326        3         0
                text24                              308      308        5         0
                text23                              2F2      2F2        6         0
                text22                              236      236       1D         0
                text21                              120      120       6D         0
                text19                              218      218       1E         0
                text18                              323      323        3         0
                text17                              280      280        E         0
                text16                              2EC      2EC        6         0
                text15                              2E6      2E6        6         0
                text14                              2E0      2E0        6         0
                text13                              2DA      2DA        6         0
                text12                              303      303        5         0
                text11                              2FE      2FE        5         0
                text10                              2D4      2D4        6         0
                text9                               2CE      2CE        6         0
                text8                               1DF      1DF       39         0
                text7                               2A5      2A5        9         0
                text6                               31B      31B        4         0
                text5                               29B      29B        A         0
                text4                               2C8      2C8        6         0
                text3                               253      253       1A         0
                text2                               317      317        4         0
                text1                               26D      26D       13         0
                maintext                             49       49       D7         0
                clrtext                             2C2      2C2        6         0
                idataBANK0                          2BC      2BC        6         0

        CLASS   STRCODE        

        CLASS   STRING         

        CLASS   CONST          

        CLASS   ENTRY          

        CLASS   COMMON         
                cstackCOMMON                         70       70        6         1
                bssCOMMON                            76       76        4         1

        CLASS   BANK0          
                cstackBANK0                          46       46        4         1
                dataBANK0                            40       40        6         1
                bssBANK0                             20       20       20         1

        CLASS   BANK1          

        CLASS   BANK2          

        CLASS   BIGRAM         

        CLASS   RAM            

        CLASS   ABS1           
                abs_s1                               7E       7E        2         1

        CLASS   SFR0           

        CLASS   SFR1           

        CLASS   SFR2           

        CLASS   SFR3           

        CLASS   SFR4           

        CLASS   SFR5           

        CLASS   SFR6           

        CLASS   SFR7           

        CLASS   SFR8           

        CLASS   SFR9           

        CLASS   SFR10          

        CLASS   SFR11          

        CLASS   SFR12          

        CLASS   SFR13          

        CLASS   SFR14          

        CLASS   SFR15          

        CLASS   SFR16          

        CLASS   SFR17          

        CLASS   SFR18          

        CLASS   SFR19          

        CLASS   SFR20          

        CLASS   SFR21          

        CLASS   SFR22          

        CLASS   SFR23          

        CLASS   SFR24          

        CLASS   SFR25          

        CLASS   SFR26          

        CLASS   SFR27          

        CLASS   SFR28          

        CLASS   SFR29          

        CLASS   SFR30          

        CLASS   SFR31          

        CLASS   CONFIG         
                config                             8007     8007        2         4

        CLASS   IDLOC          
                idloc                              8000     8000        4         5

        CLASS   BANK31         

        CLASS   BANK30         

        CLASS   BANK29         

        CLASS   BANK28         

        CLASS   BANK27         

        CLASS   BANK26         

        CLASS   BANK25         

        CLASS   BANK24         

        CLASS   BANK23         

        CLASS   BANK22         

        CLASS   BANK21         

        CLASS   BANK20         

        CLASS   BANK19         

        CLASS   BANK18         

        CLASS   BANK17         

        CLASS   BANK16         

        CLASS   BANK15         

        CLASS   BANK14         

        CLASS   BANK13         

        CLASS   BANK12         

        CLASS   BANK11         

        CLASS   BANK10         

        CLASS   BANK9          

        CLASS   BANK8          

        CLASS   BANK7          

        CLASS   BANK6          

        CLASS   BANK5          

        CLASS   BANK4          

        CLASS   BANK3          

        CLASS   HEAP           

        CLASS   STACK          

        CLASS   EEDATA         



SEGMENTS        Name                           Load    Length   Top    Selector   Space  Class     Delta

                reset_vec                      000000  000002  000002         0       0  CODE        2
                intentry                       000004  00032B  00032F         8       0  CODE        2
                bssBANK0                       000020  00002A  00004A        20       1  BANK0       1
                cstackCOMMON                   000070  00000A  00007A        70       1  COMMON      1


UNUSED ADDRESS RANGES

        Name                Unused          Largest block    Delta
        BANK0            0004A-0006F              26           1
        BANK1            000A0-000EF              50           1
        BANK2            00120-0016F              50           1
        BIGRAM           02000-020EF              F0           1
        CODE             00002-00003               2           2
                         0032F-00FFF             4D1
        COMMON           0007A-0007D               4           1
        CONST            00002-00003               2           2
                         0032F-00FFF             100
        ENTRY            00002-00003               2           2
                         0032F-00FFF             100
        RAM              0004A-0006F              26           1
                         000A0-000EF              50
                         00120-0016F              50
        SFR0             00000-0001F              20           1
        SFR1             00080-0009F              20           1
        SFR10            00500-0056F              70           1
        SFR11            00580-005EF              70           1
        SFR12            00600-0066F              70           1
        SFR13            00680-006EF              70           1
        SFR14            00700-0076F              70           1
        SFR15            00780-007EF              70           1
        SFR16            00800-0086F              70           1
        SFR17            00880-008EF              70           1
        SFR18            00900-0096F              70           1
        SFR19            00980-009EF              70           1
        SFR2             00100-0011F              20           1
        SFR20            00A00-00A6F              70           1
        SFR21            00A80-00AEF              70           1
        SFR22            00B00-00B6F              70           1
        SFR23            00B80-00BEF              70           1
        SFR24            00C00-00C6F              70           1
        SFR25            00C80-00CEF              70           1
        SFR26            00D00-00D6F              70           1
        SFR27            00D80-00DEF              70           1
        SFR28            00E00-00E6F              70           1
        SFR29            00E80-00EEF              70           1
        SFR3             00180-001EF              70           1
        SFR30            00F00-00F6F              70           1
        SFR31            00F80-00FEF              70           1
        SFR4             00200-0026F              70           1
        SFR5             00280-002EF              70           1
        SFR6             00300-0036F              70           1
        SFR7             00380-003EF              70           1
        SFR8             00400-0046F              70           1
        SFR9             00480-004EF              70           1
        STRCODE          00002-00003               2           2
                         0032F-00FFF             CD1
        STRING           00002-00003               2           2
                         0032F-00FFF             100

                                  Symbol Table

?_ADC_GetConversion                       cstackCOMMON 00074
ADC_GetConversion@channel                 cstackBANK0  00047
I2C_SlaveSendTxData@data                  cstackCOMMON 00070
I2C_SlaveSetAddrIntHandler@handler        cstackCOMMON 00074
I2C_SlaveSetBusColIntHandler@handler      cstackCOMMON 00074
I2C_SlaveSetIsrHandler@handler            cstackCOMMON 00074
I2C_SlaveSetReadIntHandler@handler        cstackCOMMON 00074
I2C_SlaveSetSlaveAddr@slaveAddr           cstackCOMMON 00074
I2C_SlaveSetSlaveMask@maskAddr            cstackCOMMON 00074
I2C_SlaveSetWrColIntHandler@handler       cstackCOMMON 00074
I2C_SlaveSetWriteIntHandler@handler       cstackCOMMON 00074
_ADCON0                                   (abs)        0009D
_ADCON0bits                               (abs)        0009D
_ADCON1                                   (abs)        0009E
_ADCON2                                   (abs)        0009F
_ADC_GetConversion                        text19       00218
_ADC_Initialize                           text7        002A5
_ADRESH                                   (abs)        0009C
_ADRESL                                   (abs)        0009B
_ANSELA                                   (abs)        0018C
_ANSELB                                   (abs)        0018D
_ANSELC                                   (abs)        0018E
_APFCON                                   (abs)        0011D
_BORCON                                   (abs)        00116
_FVRCON                                   (abs)        00117
_FVRCONbits                               (abs)        00117
_FVR_Initialize                           text6        0031B
_I2C_Initialize                           text5        0029B
_I2C_Isr                                  text21       00120
_I2C_Open                                 text8        001DF
_I2C_SlaveAddrCallBack                    text33       0028E
_I2C_SlaveAddrInterruptHandler            bssBANK0     0002A
_I2C_SlaveBusColInterruptHandler          bssBANK0     00028
_I2C_SlaveClearIrq                        text32       00329
_I2C_SlaveDefAddrInterruptHandler         text34       002F8
_I2C_SlaveDefBusColInterruptHandler       (abs)        00000
_I2C_SlaveDefRdInterruptHandler           text27       0030D
_I2C_SlaveDefWrColInterruptHandler        (abs)        00000
_I2C_SlaveDefWrInterruptHandler           text23       002F2
_I2C_SlaveEnableIrq                       text18       00323
_I2C_SlaveGetRxData                       text35       0032C
_I2C_SlaveIsAddr                          text31       002B5
_I2C_SlaveIsRead                          text30       00312
_I2C_SlaveIsRxBufFull                     text29       0031F
_I2C_SlaveIsTxBufEmpty                    text28       002AE
_I2C_SlaveOpen                            text17       00280
_I2C_SlaveRdCallBack                      text26       0018D
_I2C_SlaveRdInterruptHandler              bssBANK0     0002E
_I2C_SlaveReleaseClock                    text25       00326
_I2C_SlaveSendTxData                      text24       00308
_I2C_SlaveSetAddrIntHandler               text16       002EC
_I2C_SlaveSetBusColIntHandler             text15       002E6
_I2C_SlaveSetIsrHandler                   text14       002E0
_I2C_SlaveSetReadIntHandler               text13       002DA
_I2C_SlaveSetSlaveAddr                    text12       00303
_I2C_SlaveSetSlaveMask                    text11       002FE
_I2C_SlaveSetWrColIntHandler              text10       002D4
_I2C_SlaveSetWriteIntHandler              text9        002CE
_I2C_SlaveWrCallBack                      text22       00236
_I2C_SlaveWrColInterruptHandler           bssBANK0     00026
_I2C_SlaveWrInterruptHandler              bssBANK0     0002C
_INTCONbits                               (abs)        0000B
_INTERRUPT_InterruptManager               intentry     00004
_LATA                                     (abs)        0010C
_LATB                                     (abs)        0010D
_LATBbits                                 (abs)        0010D
_LATC                                     (abs)        0010E
_LATCbits                                 (abs)        0010E
_MSSP_InterruptHandler                    bssBANK0     00030
_OPTION_REGbits                           (abs)        00095
_OSCCON                                   (abs)        00099
_OSCILLATOR_Initialize                    text4        002C8
_PIE1bits                                 (abs)        00091
_PIE2bits                                 (abs)        00092
_PIN_MANAGER_Initialize                   text3        00253
_PIR1bits                                 (abs)        00011
_PIR2bits                                 (abs)        00012
_SSP1ADD                                  (abs)        00212
_SSP1BUF                                  (abs)        00211
_SSP1CON1                                 (abs)        00215
_SSP1CON1bits                             (abs)        00215
_SSP1CON2                                 (abs)        00216
_SSP1CON2bits                             (abs)        00216
_SSP1MSK                                  (abs)        00213
_SSP1STAT                                 (abs)        00214
_SSP1STATbits                             (abs)        00214
_SYSTEM_Initialize                        text1        0026D
_TRISA                                    (abs)        0008C
_TRISB                                    (abs)        0008D
_TRISC                                    (abs)        0008E
_Temp1                                    bssBANK0     0003E
_Temp2                                    bssBANK0     0003C
_Temp3                                    bssBANK0     0003A
_Temp4                                    bssBANK0     00038
_Temp5                                    bssBANK0     00036
_Volt1                                    bssCOMMON    00078
_WDTCON                                   (abs)        00097
_WDT_Initialize                           text2        00317
_WPUA                                     (abs)        0020C
_WPUB                                     (abs)        0020D
__H__absolute__                           __absolute__ 00000
__Habs1                                   abs1         00000
__Hbank0                                  bank0        00000
__Hbank1                                  bank1        00000
__Hbank10                                 bank10       00000
__Hbank11                                 bank11       00000
__Hbank12                                 bank12       00000
__Hbank13                                 bank13       00000
__Hbank14                                 bank14       00000
__Hbank15                                 bank15       00000
__Hbank16                                 bank16       00000
__Hbank17                                 bank17       00000
__Hbank18                                 bank18       00000
__Hbank19                                 bank19       00000
__Hbank2                                  bank2        00000
__Hbank20                                 bank20       00000
__Hbank21                                 bank21       00000
__Hbank22                                 bank22       00000
__Hbank23                                 bank23       00000
__Hbank24                                 bank24       00000
__Hbank25                                 bank25       00000
__Hbank26                                 bank26       00000
__Hbank27                                 bank27       00000
__Hbank28                                 bank28       00000
__Hbank29                                 bank29       00000
__Hbank3                                  bank3        00000
__Hbank30                                 bank30       00000
__Hbank31                                 bank31       00000
__Hbank4                                  bank4        00000
__Hbank5                                  bank5        00000
__Hbank6                                  bank6        00000
__Hbank7                                  bank7        00000
__Hbank8                                  bank8        00000
__Hbank9                                  bank9        00000
__Hbigram                                 bigram       00000
__HbssBANK0                               bssBANK0     00000
__HbssCOMMON                              bssCOMMON    00000
__Hcinit                                  cinit        00049
__Hclrtext                                clrtext      00000
__Hcode                                   code         00000
__Hcommon                                 common       00000
__Hconfig                                 config       08009
__HcstackBANK0                            cstackBANK0  00000
__HcstackCOMMON                           cstackCOMMON 00000
__HdataBANK0                              dataBANK0    00000
__Heeprom_data                            eeprom_data  00000
__Hend_init                               end_init     00029
__Hfunctab                                functab      00000
__Hheap                                   heap         00000
__HidataBANK0                             idataBANK0   00000
__Hidloc                                  idloc        08004
__Hinit                                   init         00027
__Hintentry                               intentry     00027
__Hmaintext                               maintext     00000
__Hpowerup                                powerup      00000
__Hram                                    ram          00000
__Hreset_vec                              reset_vec    00002
__Hsfr0                                   sfr0         00000
__Hsfr1                                   sfr1         00000
__Hsfr10                                  sfr10        00000
__Hsfr11                                  sfr11        00000
__Hsfr12                                  sfr12        00000
__Hsfr13                                  sfr13        00000
__Hsfr14                                  sfr14        00000
__Hsfr15                                  sfr15        00000
__Hsfr16                                  sfr16        00000
__Hsfr17                                  sfr17        00000
__Hsfr18                                  sfr18        00000
__Hsfr19                                  sfr19        00000
__Hsfr2                                   sfr2         00000
__Hsfr20                                  sfr20        00000
__Hsfr21                                  sfr21        00000
__Hsfr22                                  sfr22        00000
__Hsfr23                                  sfr23        00000
__Hsfr24                                  sfr24        00000
__Hsfr25                                  sfr25        00000
__Hsfr26                                  sfr26        00000
__Hsfr27                                  sfr27        00000
__Hsfr28                                  sfr28        00000
__Hsfr29                                  sfr29        00000
__Hsfr3                                   sfr3         00000
__Hsfr30                                  sfr30        00000
__Hsfr31                                  sfr31        00000
__Hsfr4                                   sfr4         00000
__Hsfr5                                   sfr5         00000
__Hsfr6                                   sfr6         00000
__Hsfr7                                   sfr7         00000
__Hsfr8                                   sfr8         00000
__Hsfr9                                   sfr9         00000
__Hspace_0                                (abs)        0032F
__Hspace_1                                (abs)        0007A
__Hspace_2                                (abs)        00000
__Hspace_3                                (abs)        00000
__Hspace_4                                (abs)        10010
__Hstack                                  stack        00000
__Hstrings                                strings      00000
__Htext                                   text         00000
__L__absolute__                           __absolute__ 00000
__Labs1                                   abs1         00000
__Lbank0                                  bank0        00000
__Lbank1                                  bank1        00000
__Lbank10                                 bank10       00000
__Lbank11                                 bank11       00000
__Lbank12                                 bank12       00000
__Lbank13                                 bank13       00000
__Lbank14                                 bank14       00000
__Lbank15                                 bank15       00000
__Lbank16                                 bank16       00000
__Lbank17                                 bank17       00000
__Lbank18                                 bank18       00000
__Lbank19                                 bank19       00000
__Lbank2                                  bank2        00000
__Lbank20                                 bank20       00000
__Lbank21                                 bank21       00000
__Lbank22                                 bank22       00000
__Lbank23                                 bank23       00000
__Lbank24                                 bank24       00000
__Lbank25                                 bank25       00000
__Lbank26                                 bank26       00000
__Lbank27                                 bank27       00000
__Lbank28                                 bank28       00000
__Lbank29                                 bank29       00000
__Lbank3                                  bank3        00000
__Lbank30                                 bank30       00000
__Lbank31                                 bank31       00000
__Lbank4                                  bank4        00000
__Lbank5                                  bank5        00000
__Lbank6                                  bank6        00000
__Lbank7                                  bank7        00000
__Lbank8                                  bank8        00000
__Lbank9                                  bank9        00000
__Lbigram                                 bigram       00000
__LbssBANK0                               bssBANK0     00000
__LbssCOMMON                              bssCOMMON    00000
__Lcinit                                  cinit        00029
__Lclrtext                                clrtext      00000
__Lcode                                   code         00000
__Lcommon                                 common       00000
__Lconfig                                 config       00000
__LcstackBANK0                            cstackBANK0  00000
__LcstackCOMMON                           cstackCOMMON 00000
__LdataBANK0                              dataBANK0    00000
__Leeprom_data                            eeprom_data  00000
__Lend_init                               end_init     00027
__Lfunctab                                functab      00000
__Lheap                                   heap         00000
__LidataBANK0                             idataBANK0   00000
__Lidloc                                  idloc        00000
__Linit                                   init         00027
__Lintentry                               intentry     00004
__Lmaintext                               maintext     00000
__Lpowerup                                powerup      00000
__Lram                                    ram          00000
__Lreset_vec                              reset_vec    00000
__Lsfr0                                   sfr0         00000
__Lsfr1                                   sfr1         00000
__Lsfr10                                  sfr10        00000
__Lsfr11                                  sfr11        00000
__Lsfr12                                  sfr12        00000
__Lsfr13                                  sfr13        00000
__Lsfr14                                  sfr14        00000
__Lsfr15                                  sfr15        00000
__Lsfr16                                  sfr16        00000
__Lsfr17                                  sfr17        00000
__Lsfr18                                  sfr18        00000
__Lsfr19                                  sfr19        00000
__Lsfr2                                   sfr2         00000
__Lsfr20                                  sfr20        00000
__Lsfr21                                  sfr21        00000
__Lsfr22                                  sfr22        00000
__Lsfr23                                  sfr23        00000
__Lsfr24                                  sfr24        00000
__Lsfr25                                  sfr25        00000
__Lsfr26                                  sfr26        00000
__Lsfr27                                  sfr27        00000
__Lsfr28                                  sfr28        00000
__Lsfr29                                  sfr29        00000
__Lsfr3                                   sfr3         00000
__Lsfr30                                  sfr30        00000
__Lsfr31                                  sfr31        00000
__Lsfr4                                   sfr4         00000
__Lsfr5                                   sfr5         00000
__Lsfr6                                   sfr6         00000
__Lsfr7                                   sfr7         00000
__Lsfr8                                   sfr8         00000
__Lsfr9                                   sfr9         00000
__Lspace_0                                (abs)        00000
__Lspace_1                                (abs)        00000
__Lspace_2                                (abs)        00000
__Lspace_3                                (abs)        00000
__Lspace_4                                (abs)        00000
__Lstack                                  stack        00000
__Lstrings                                strings      00000
__Ltext                                   text         00000
__S0                                      (abs)        0032F
__S1                                      (abs)        0007A
___heap_hi                                (abs)        00000
___heap_lo                                (abs)        00000
___int_sp                                 stack        00000
___latbits                                (abs)        00001
___sp                                     stack        00000
___stackhi                                (abs)        00000
___stacklo                                (abs)        00000
__end_of_ADC_GetConversion                text19       00236
__end_of_ADC_Initialize                   text7        002AE
__end_of_FVR_Initialize                   text6        0031F
__end_of_I2C_Initialize                   text5        002A5
__end_of_I2C_Isr                          text21       0018D
__end_of_I2C_Open                         text8        00218
__end_of_I2C_SlaveAddrCallBack            text33       0029B
__end_of_I2C_SlaveClearIrq                text32       0032C
__end_of_I2C_SlaveDefAddrInterruptHandler text34       002FE
__end_of_I2C_SlaveDefRdInterruptHandler   text27       00312
__end_of_I2C_SlaveDefWrInterruptHandler   text23       002F8
__end_of_I2C_SlaveEnableIrq               text18       00326
__end_of_I2C_SlaveGetRxData               text35       0032F
__end_of_I2C_SlaveIsAddr                  text31       002BC
__end_of_I2C_SlaveIsRead                  text30       00317
__end_of_I2C_SlaveIsRxBufFull             text29       00323
__end_of_I2C_SlaveIsTxBufEmpty            text28       002B5
__end_of_I2C_SlaveOpen                    text17       0028E
__end_of_I2C_SlaveRdCallBack              text26       001DF
__end_of_I2C_SlaveReleaseClock            text25       00329
__end_of_I2C_SlaveSendTxData              text24       0030D
__end_of_I2C_SlaveSetAddrIntHandler       text16       002F2
__end_of_I2C_SlaveSetBusColIntHandler     text15       002EC
__end_of_I2C_SlaveSetIsrHandler           text14       002E6
__end_of_I2C_SlaveSetReadIntHandler       text13       002E0
__end_of_I2C_SlaveSetSlaveAddr            text12       00308
__end_of_I2C_SlaveSetSlaveMask            text11       00303
__end_of_I2C_SlaveSetWrColIntHandler      text10       002DA
__end_of_I2C_SlaveSetWriteIntHandler      text9        002D4
__end_of_I2C_SlaveWrCallBack              text22       00253
__end_of_INTERRUPT_InterruptManager       intentry     00027
__end_of_OSCILLATOR_Initialize            text4        002CE
__end_of_PIN_MANAGER_Initialize           text3        0026D
__end_of_SYSTEM_Initialize                text1        00280
__end_of_WDT_Initialize                   text2        0031B
__end_of__initialization                  cinit        00045
__end_of_main                             maintext     00120
__initialization                          cinit        00029
__pbssBANK0                               bssBANK0     00020
__pbssCOMMON                              bssCOMMON    00076
__pcstackBANK0                            cstackBANK0  00046
__pcstackCOMMON                           cstackCOMMON 00070
__pdataBANK0                              dataBANK0    00040
__pidataBANK0                             idataBANK0   002BC
__pintentry                               intentry     00004
__pmaintext                               maintext     00049
__ptext1                                  text1        0026D
__ptext10                                 text10       002D4
__ptext11                                 text11       002FE
__ptext12                                 text12       00303
__ptext13                                 text13       002DA
__ptext14                                 text14       002E0
__ptext15                                 text15       002E6
__ptext16                                 text16       002EC
__ptext17                                 text17       00280
__ptext18                                 text18       00323
__ptext19                                 text19       00218
__ptext2                                  text2        00317
__ptext21                                 text21       00120
__ptext22                                 text22       00236
__ptext23                                 text23       002F2
__ptext24                                 text24       00308
__ptext25                                 text25       00326
__ptext26                                 text26       0018D
__ptext27                                 text27       0030D
__ptext28                                 text28       002AE
__ptext29                                 text29       0031F
__ptext3                                  text3        00253
__ptext30                                 text30       00312
__ptext31                                 text31       002B5
__ptext32                                 text32       00329
__ptext33                                 text33       0028E
__ptext34                                 text34       002F8
__ptext35                                 text35       0032C
__ptext4                                  text4        002C8
__ptext5                                  text5        0029B
__ptext6                                  text6        0031B
__ptext7                                  text7        002A5
__ptext8                                  text8        001DF
__ptext9                                  text9        002CE
_balanceFlag                              bssCOMMON    00077
_current_Data                             bssBANK0     00024
_danger_flag                              bssBANK0     00032
_i2cRdData                                bssCOMMON    00076
_i2cSlaveAddr                             bssBANK0     00034
_i2cSlaveState                            bssBANK0     00033
_i2cWrData                                bssBANK0     00035
_index                                    bssBANK0     00022
_main                                     maintext     00049
btemp                                     (abs)        0007E
clear_ram0                                clrtext      002C2
end_of_initialization                     cinit        00045
int$flags                                 (abs)        0007E
intlevel0                                 functab      00000
intlevel1                                 functab      00000
intlevel2                                 functab      00000
intlevel3                                 functab      00000
intlevel4                                 functab      00000
intlevel5                                 functab      00000
reset_vec                                 reset_vec    00000
start                                     init         00027
start_initialization                      cinit        00029
wtemp0                                    (abs)        0007E


MODULE INFORMATION

Module		Function		Class		Link	Load	Size
mcc_generated_files/fvr.c
		_FVR_Initialize		CODE           	031B	0000	4

mcc_generated_files/fvr.c estimated size: 4

mcc_generated_files/i2c_slave.c
		_I2C_SlaveDefRdInterruptHandler		CODE           	030D	0000	5
		_I2C_SlaveDefWrInterruptHandler		CODE           	02F2	0000	6
		_I2C_SlaveSetWrColIntHandler		CODE           	02D4	0000	6
		_I2C_SlaveSetWriteIntHandler		CODE           	02CE	0000	6
		_I2C_SlaveOpen 		CODE           	0280	0000	14
		_I2C_SlaveSetSlaveAddr		CODE           	0303	0000	5
		_I2C_SlaveIsRxBufFull		CODE           	031F	0000	4
		_I2C_SlaveClearIrq		CODE           	0329	0000	3
		_I2C_SlaveGetRxData		CODE           	032C	0000	3
		_I2C_SlaveSetSlaveMask		CODE           	02FE	0000	5
		_I2C_Isr       		CODE           	0120	0000	109
		_I2C_SlaveDefAddrInterruptHandler		CODE           	02F8	0000	6
		_I2C_Open      		CODE           	01DF	0000	57
		_I2C_SlaveIsRead		CODE           	0312	0000	5
		_I2C_SlaveSetIsrHandler		CODE           	02E0	0000	6
		_I2C_SlaveIsAddr		CODE           	02B5	0000	7
		_I2C_SlaveSetBusColIntHandler		CODE           	02E6	0000	6
		_I2C_SlaveEnableIrq		CODE           	0323	0000	3
		_I2C_SlaveSendTxData		CODE           	0308	0000	5
		_I2C_SlaveRdCallBack		CODE           	018D	0000	82
		_I2C_SlaveWrCallBack		CODE           	0236	0000	29
		_I2C_SlaveSetReadIntHandler		CODE           	02DA	0000	6
		_I2C_SlaveAddrCallBack		CODE           	028E	0000	13
		_I2C_Initialize		CODE           	029B	0000	10
		_I2C_SlaveIsTxBufEmpty		CODE           	02AE	0000	7
		_I2C_SlaveSetAddrIntHandler		CODE           	02EC	0000	6
		_I2C_SlaveReleaseClock		CODE           	0326	0000	3

mcc_generated_files/i2c_slave.c estimated size: 417

mcc_generated_files/interrupt_manager.c
		_INTERRUPT_InterruptManager		CODE           	0004	0000	35

mcc_generated_files/interrupt_manager.c estimated size: 35

mcc_generated_files/pin_manager.c
		_PIN_MANAGER_Initialize		CODE           	0253	0000	26

mcc_generated_files/pin_manager.c estimated size: 26

mcc_generated_files/adc.c
		_ADC_Initialize		CODE           	02A5	0000	9
		_ADC_GetConversion		CODE           	0218	0000	30

mcc_generated_files/adc.c estimated size: 39

shared
		__initialization		CODE           	0029	0000	28

shared estimated size: 28

mcc_generated_files/mcc.c
		_WDT_Initialize		CODE           	0317	0000	4
		_OSCILLATOR_Initialize		CODE           	02C8	0000	6
		_SYSTEM_Initialize		CODE           	026D	0000	19

mcc_generated_files/mcc.c estimated size: 29

main.c
		_main          		CODE           	0049	0000	215

main.c estimated size: 215

